target datalayout = "e-m:e-p270:32:32-p271:32:32-p272:64:64-i64:64-i128:128-f80:128-n8:16:32:64-S128"
target triple = "x86_64-pc-linux-gnu"

%struct.ASN1_ENCODING_st = type { ptr, i64, i32 }
%struct.X509_algor_st = type { ptr, ptr }
%struct.CRYPTO_REF_COUNT = type { i32 }
%struct.X509_req_st = type { %struct.X509_req_info_st, %struct.X509_algor_st, ptr, %struct.CRYPTO_REF_COUNT, ptr, ptr, ptr, ptr }
%struct.X509_req_info_st = type { %struct.ASN1_ENCODING_st, ptr, ptr, ptr, ptr }

@.str = private unnamed_addr constant [34 x i8] c"../openssl/crypto/x509/x509_req.c\00", align 1
@__func__.X509_REQ_add1_attr = private unnamed_addr constant [19 x i8] c"X509_REQ_add1_attr\00", align 1

; Function Attrs: nounwind uwtable
define i32 @X509_REQ_add1_attr(ptr noundef %0, ptr noundef %1) #0 {
  %3 = alloca i32, align 4
  %4 = alloca ptr, align 8
  %5 = alloca ptr, align 8
  store ptr %0, ptr %4, align 8, !tbaa !42
  store ptr %1, ptr %5, align 8, !tbaa !61
  %6 = load ptr, ptr %4, align 8, !tbaa !42
  %7 = icmp eq ptr %6, null
  br i1 %7, label %8, label %9

8:                                                ; preds = %2
  call void @ERR_new()
  call void @ERR_set_debug(ptr noundef @.str, i32 noundef 253, ptr noundef @__func__.X509_REQ_add1_attr)
  call void (i32, i32, ptr, ...) @ERR_set_error(i32 noundef 11, i32 noundef 786690, ptr noundef null)
  store i32 0, ptr %3, align 4
  br label %22

9:                                                ; preds = %2
  %10 = load ptr, ptr %4, align 8, !tbaa !42
  %11 = getelementptr inbounds nuw %struct.X509_req_st, ptr %10, i32 0, i32 0
  %12 = getelementptr inbounds nuw %struct.X509_req_info_st, ptr %11, i32 0, i32 4
  %13 = load ptr, ptr %5, align 8, !tbaa !61
  %14 = call ptr @X509at_add1_attr(ptr noundef %12, ptr noundef %13)
  %15 = icmp ne ptr %14, null
  br i1 %15, label %17, label %16

16:                                               ; preds = %9
  store i32 0, ptr %3, align 4
  br label %22

17:                                               ; preds = %9
  %18 = load ptr, ptr %4, align 8, !tbaa !42
  %19 = getelementptr inbounds nuw %struct.X509_req_st, ptr %18, i32 0, i32 0
  %20 = getelementptr inbounds nuw %struct.X509_req_info_st, ptr %19, i32 0, i32 0
  %21 = getelementptr inbounds nuw %struct.ASN1_ENCODING_st, ptr %20, i32 0, i32 2
  store i32 1, ptr %21, align 8, !tbaa !67
  store i32 1, ptr %3, align 4
  br label %22

22:                                               ; preds = %17, %16, %8
  %23 = load i32, ptr %3, align 4
  ret i32 %23
}