; Function Attrs: nounwind uwtable
define range(i32 0, 2) i32 @X509_REQ_add1_attr(ptr noundef %0, ptr noundef %1) local_unnamed_addr #0 {
  %3 = icmp eq ptr %0, null
  br i1 %3, label %4, label %5

4:                                                ; preds = %2
  tail call void @ERR_new() #8
  tail call void @ERR_set_debug(ptr noundef nonnull @.str, i32 noundef 253, ptr noundef nonnull @__func__.X509_REQ_add1_attr) #8
  tail call void (i32, i32, ptr, ...) @ERR_set_error(i32 noundef 11, i32 noundef 786690, ptr noundef null) #8
  br label %10

5:                                                ; preds = %2
  %6 = getelementptr inbounds nuw i8, ptr %0, i64 48
  %7 = tail call ptr @X509at_add1_attr(ptr noundef nonnull %6, ptr noundef %1) #8
  %.not = icmp eq ptr %7, null
  br i1 %.not, label %10, label %8

8:                                                ; preds = %5
  %9 = getelementptr inbounds nuw i8, ptr %0, i64 16
  store i32 1, ptr %9, align 8, !tbaa !54
  br label %10

10:                                               ; preds = %5, %8, %4
  %.0 = phi i32 [ 0, %4 ], [ 1, %8 ], [ 0, %5 ]
  ret i32 %.0
}